target datalayout = "e-m:e-p270:32:32-p271:32:32-p272:64:64-i64:64-i128:128-f80:128-n8:16:32:64-S128"
target triple = "x86_64-pc-linux-gnu"

%struct.strvec = type { ptr, i64, i64 }
%struct.string_list = type { ptr, i64, i64, i8, ptr }
%struct.string_list_item = type { ptr, ptr }
%struct.remote = type { %struct.hashmap_entry, ptr, i32, i32, ptr, %struct.strvec, %struct.strvec, %struct.refspec, %struct.refspec, i32, i32, i32, i32, i32, ptr, ptr, ptr, ptr, %struct.string_list, i32, ptr }
%struct.hashmap_entry = type { ptr, i32 }
%struct.refspec = type { ptr, i32, i32, i32 }
%struct.ref_states = type { ptr, %struct.string_list, %struct.string_list, %struct.string_list, %struct.string_list, %struct.string_list, %struct.string_list, i32 }
%struct.show_info = type { %struct.string_list, %struct.ref_states, i32, i32, i32 }

@.str.43 = private unnamed_addr constant [3 x i8] c"%s\00", align 1
@git_gettext_enabled = external global i32, align 4
@.str.154 = private unnamed_addr constant [8 x i8] c"    %s\0A\00", align 1
@.str.158 = private unnamed_addr constant [1 x i8] zeroinitializer, align 1
@.str.165 = private unnamed_addr constant [43 x i8] c" new (next fetch will store in remotes/%s)\00", align 1
@.str.166 = private unnamed_addr constant [9 x i8] c" tracked\00", align 1
@.str.167 = private unnamed_addr constant [9 x i8] c" skipped\00", align 1
@.str.168 = private unnamed_addr constant [42 x i8] c" stale (use 'git remote prune' to remove)\00", align 1
@.str.169 = private unnamed_addr constant [5 x i8] c" ???\00", align 1
@.str.170 = private unnamed_addr constant [9 x i8] c"    %-*s\00", align 1
@.str.171 = private unnamed_addr constant [2 x i8] c"\0A\00", align 1

; Function Attrs: inlinehint nounwind uwtable
define internal ptr @_(ptr noundef %0) #4 {
  %2 = alloca ptr, align 8
  %3 = alloca ptr, align 8
  store ptr %0, ptr %3, align 8, !tbaa !11
  %4 = load ptr, ptr %3, align 8, !tbaa !11
  %5 = load i8, ptr %4, align 1, !tbaa !125
  %6 = icmp ne i8 %5, 0
  br i1 %6, label %8, label %7

7:                                                ; preds = %1
  store ptr @.str.158, ptr %2, align 8
  br label %16

8:                                                ; preds = %1
  %9 = load i32, ptr @git_gettext_enabled, align 4, !tbaa !4
  %10 = icmp ne i32 %9, 0
  br i1 %10, label %13, label %11

11:                                               ; preds = %8
  %12 = load ptr, ptr %3, align 8, !tbaa !11
  store ptr %12, ptr %2, align 8
  br label %16

13:                                               ; preds = %8
  %14 = load ptr, ptr %3, align 8, !tbaa !11
  %15 = call ptr @dcgettext(ptr noundef null, ptr noundef %14, i32 noundef 5) #11
  store ptr %15, ptr %2, align 8
  br label %16

16:                                               ; preds = %13, %11, %7
  %17 = load ptr, ptr %2, align 8
  ret ptr %17
}

; Function Attrs: nounwind uwtable
define internal i32 @show_remote_info_item(ptr noundef %0, ptr noundef %1) #0 {
  %3 = alloca ptr, align 8
  %4 = alloca ptr, align 8
  %5 = alloca ptr, align 8
  %6 = alloca ptr, align 8
  %7 = alloca ptr, align 8
  %8 = alloca ptr, align 8
  %9 = alloca ptr, align 8
  store ptr %0, ptr %3, align 8, !tbaa !62
  store ptr %1, ptr %4, align 8, !tbaa !15
  call void @llvm.lifetime.start.p0(i64 8, ptr %5) #11
  %10 = load ptr, ptr %4, align 8, !tbaa !15
  store ptr %10, ptr %5, align 8, !tbaa !203
  call void @llvm.lifetime.start.p0(i64 8, ptr %6) #11
  %11 = load ptr, ptr %5, align 8, !tbaa !203
  %12 = getelementptr inbounds nuw %struct.show_info, ptr %11, i32 0, i32 1
  store ptr %12, ptr %6, align 8, !tbaa !177
  call void @llvm.lifetime.start.p0(i64 8, ptr %7) #11
  %13 = load ptr, ptr %3, align 8, !tbaa !62
  %14 = getelementptr inbounds nuw %struct.string_list_item, ptr %13, i32 0, i32 0
  %15 = load ptr, ptr %14, align 8, !tbaa !38
  store ptr %15, ptr %7, align 8, !tbaa !11
  %16 = load ptr, ptr %6, align 8, !tbaa !177
  %17 = getelementptr inbounds nuw %struct.ref_states, ptr %16, i32 0, i32 7
  %18 = load i32, ptr %17, align 8, !tbaa !184
  %19 = icmp ne i32 %18, 0
  br i1 %19, label %20, label %72

20:                                               ; preds = %2
  call void @llvm.lifetime.start.p0(i64 8, ptr %8) #11
  store ptr @.str.43, ptr %8, align 8, !tbaa !11
  call void @llvm.lifetime.start.p0(i64 8, ptr %9) #11
  store ptr @.str.158, ptr %9, align 8, !tbaa !11
  %21 = load ptr, ptr %6, align 8, !tbaa !177
  %22 = getelementptr inbounds nuw %struct.ref_states, ptr %21, i32 0, i32 1
  %23 = load ptr, ptr %7, align 8, !tbaa !11
  %24 = call i32 @string_list_has_string(ptr noundef %22, ptr noundef %23)
  %25 = icmp ne i32 %24, 0
  br i1 %25, label %26, label %33

26:                                               ; preds = %20
  %27 = call ptr @_(ptr noundef @.str.165)
  store ptr %27, ptr %8, align 8, !tbaa !11
  %28 = load ptr, ptr %6, align 8, !tbaa !177
  %29 = getelementptr inbounds nuw %struct.ref_states, ptr %28, i32 0, i32 0
  %30 = load ptr, ptr %29, align 8, !tbaa !179
  %31 = getelementptr inbounds nuw %struct.remote, ptr %30, i32 0, i32 1
  %32 = load ptr, ptr %31, align 8, !tbaa !81
  store ptr %32, ptr %9, align 8, !tbaa !11
  br label %62

33:                                               ; preds = %20
  %34 = load ptr, ptr %6, align 8, !tbaa !177
  %35 = getelementptr inbounds nuw %struct.ref_states, ptr %34, i32 0, i32 4
  %36 = load ptr, ptr %7, align 8, !tbaa !11
  %37 = call i32 @string_list_has_string(ptr noundef %35, ptr noundef %36)
  %38 = icmp ne i32 %37, 0
  br i1 %38, label %39, label %41

39:                                               ; preds = %33
  %40 = call ptr @_(ptr noundef @.str.166)
  store ptr %40, ptr %9, align 8, !tbaa !11
  br label %61

41:                                               ; preds = %33
  %42 = load ptr, ptr %6, align 8, !tbaa !177
  %43 = getelementptr inbounds nuw %struct.ref_states, ptr %42, i32 0, i32 2
  %44 = load ptr, ptr %7, align 8, !tbaa !11
  %45 = call i32 @string_list_has_string(ptr noundef %43, ptr noundef %44)
  %46 = icmp ne i32 %45, 0
  br i1 %46, label %47, label %49

47:                                               ; preds = %41
  %48 = call ptr @_(ptr noundef @.str.167)
  store ptr %48, ptr %9, align 8, !tbaa !11
  br label %60

49:                                               ; preds = %41
  %50 = load ptr, ptr %6, align 8, !tbaa !177
  %51 = getelementptr inbounds nuw %struct.ref_states, ptr %50, i32 0, i32 3
  %52 = load ptr, ptr %7, align 8, !tbaa !11
  %53 = call i32 @string_list_has_string(ptr noundef %51, ptr noundef %52)
  %54 = icmp ne i32 %53, 0
  br i1 %54, label %55, label %57

55:                                               ; preds = %49
  %56 = call ptr @_(ptr noundef @.str.168)
  store ptr %56, ptr %9, align 8, !tbaa !11
  br label %59

57:                                               ; preds = %49
  %58 = call ptr @_(ptr noundef @.str.169)
  store ptr %58, ptr %9, align 8, !tbaa !11
  br label %59

59:                                               ; preds = %57, %55
  br label %60

60:                                               ; preds = %59, %47
  br label %61

61:                                               ; preds = %60, %39
  br label %62

62:                                               ; preds = %61, %26
  %63 = load ptr, ptr %5, align 8, !tbaa !203
  %64 = getelementptr inbounds nuw %struct.show_info, ptr %63, i32 0, i32 2
  %65 = load i32, ptr %64, align 8, !tbaa !113
  %66 = load ptr, ptr %7, align 8, !tbaa !11
  %67 = call i32 (ptr, ...) @printf(ptr noundef @.str.170, i32 noundef %65, ptr noundef %66)
  %68 = load ptr, ptr %8, align 8, !tbaa !11
  %69 = load ptr, ptr %9, align 8, !tbaa !11
  %70 = call i32 (ptr, ...) @printf(ptr noundef %68, ptr noundef %69)
  %71 = call i32 (ptr, ...) @printf(ptr noundef @.str.171)
  call void @llvm.lifetime.end.p0(i64 8, ptr %9) #11
  call void @llvm.lifetime.end.p0(i64 8, ptr %8) #11
  br label %75

72:                                               ; preds = %2
  %73 = load ptr, ptr %7, align 8, !tbaa !11
  %74 = call i32 (ptr, ...) @printf(ptr noundef @.str.154, ptr noundef %73)
  br label %75

75:                                               ; preds = %72, %62
  call void @llvm.lifetime.end.p0(i64 8, ptr %7) #11
  call void @llvm.lifetime.end.p0(i64 8, ptr %6) #11
  call void @llvm.lifetime.end.p0(i64 8, ptr %5) #11
  ret i32 0
}