; Function Attrs: nounwind uwtable
define internal noundef i32 @show_remote_info_item(ptr noundef readonly captures(none) %0, ptr noundef %1) #0 {
  %3 = getelementptr inbounds nuw i8, ptr %1, i64 40
  %4 = load ptr, ptr %0, align 8, !tbaa !34
  %5 = getelementptr inbounds nuw i8, ptr %1, i64 288
  %6 = load i32, ptr %5, align 8, !tbaa !147
  %.not = icmp eq i32 %6, 0
  br i1 %.not, label %45, label %7

7:                                                ; preds = %2
  %8 = getelementptr inbounds nuw i8, ptr %1, i64 48
  %9 = tail call i32 @string_list_has_string(ptr noundef nonnull %8, ptr noundef %4) #19
  %.not19 = icmp eq i32 %9, 0
  br i1 %.not19, label %17, label %10

10:                                               ; preds = %7
  %11 = load i32, ptr @git_gettext_enabled, align 4, !tbaa !21
  %.not4.i = icmp eq i32 %11, 0
  br i1 %.not4.i, label %_.exit, label %12

12:                                               ; preds = %10
  %13 = tail call ptr @dcgettext(ptr noundef null, ptr noundef nonnull @.str.165, i32 noundef 5) #19
  br label %_.exit

_.exit:                                           ; preds = %10, %12
  %.0.i = phi ptr [ %13, %12 ], [ @.str.165, %10 ]
  %14 = load ptr, ptr %3, align 8, !tbaa !119
  %15 = getelementptr inbounds nuw i8, ptr %14, i64 16
  %16 = load ptr, ptr %15, align 8, !tbaa !54
  br label %_.exit25

17:                                               ; preds = %7
  %18 = getelementptr inbounds nuw i8, ptr %1, i64 168
  %19 = tail call i32 @string_list_has_string(ptr noundef nonnull %18, ptr noundef %4) #19
  %.not20 = icmp eq i32 %19, 0
  br i1 %.not20, label %24, label %20

20:                                               ; preds = %17
  %21 = load i32, ptr @git_gettext_enabled, align 4, !tbaa !21
  %.not4.i23 = icmp eq i32 %21, 0
  br i1 %.not4.i23, label %_.exit25, label %22

22:                                               ; preds = %20
  %23 = tail call ptr @dcgettext(ptr noundef null, ptr noundef nonnull @.str.166, i32 noundef 5) #19
  br label %_.exit25

24:                                               ; preds = %17
  %25 = getelementptr inbounds nuw i8, ptr %1, i64 88
  %26 = tail call i32 @string_list_has_string(ptr noundef nonnull %25, ptr noundef %4) #19
  %.not21 = icmp eq i32 %26, 0
  br i1 %.not21, label %31, label %27

27:                                               ; preds = %24
  %28 = load i32, ptr @git_gettext_enabled, align 4, !tbaa !21
  %.not4.i26 = icmp eq i32 %28, 0
  br i1 %.not4.i26, label %_.exit25, label %29

29:                                               ; preds = %27
  %30 = tail call ptr @dcgettext(ptr noundef null, ptr noundef nonnull @.str.167, i32 noundef 5) #19
  br label %_.exit25

31:                                               ; preds = %24
  %32 = getelementptr inbounds nuw i8, ptr %1, i64 128
  %33 = tail call i32 @string_list_has_string(ptr noundef nonnull %32, ptr noundef %4) #19
  %.not22 = icmp eq i32 %33, 0
  %34 = load i32, ptr @git_gettext_enabled, align 4, !tbaa !21
  %.not4.i32 = icmp eq i32 %34, 0
  br i1 %.not22, label %38, label %35

35:                                               ; preds = %31
  br i1 %.not4.i32, label %_.exit25, label %36

36:                                               ; preds = %35
  %37 = tail call ptr @dcgettext(ptr noundef null, ptr noundef nonnull @.str.168, i32 noundef 5) #19
  br label %_.exit25

38:                                               ; preds = %31
  br i1 %.not4.i32, label %_.exit25, label %39

39:                                               ; preds = %38
  %40 = tail call ptr @dcgettext(ptr noundef null, ptr noundef nonnull @.str.169, i32 noundef 5) #19
  br label %_.exit25

_.exit25:                                         ; preds = %39, %38, %36, %35, %29, %27, %22, %20, %_.exit
  %.018 = phi ptr [ %.0.i, %_.exit ], [ @.str.43, %20 ], [ @.str.43, %22 ], [ @.str.43, %27 ], [ @.str.43, %29 ], [ @.str.43, %35 ], [ @.str.43, %36 ], [ @.str.43, %38 ], [ @.str.43, %39 ]
  %.0 = phi ptr [ %16, %_.exit ], [ @.str.166, %20 ], [ %23, %22 ], [ @.str.167, %27 ], [ %30, %29 ], [ @.str.168, %35 ], [ %37, %36 ], [ @.str.169, %38 ], [ %40, %39 ]
  %41 = getelementptr inbounds nuw i8, ptr %1, i64 296
  %42 = load i32, ptr %41, align 8, !tbaa !112
  %43 = tail call i32 (ptr, ...) @printf(ptr noundef nonnull dereferenceable(1) @.str.170, i32 noundef %42, ptr noundef %4)
  %44 = tail call i32 (ptr, ...) @printf(ptr noundef nonnull dereferenceable(1) %.018, ptr noundef %.0)
  %putchar = tail call i32 @putchar(i32 10)
  br label %47

45:                                               ; preds = %2
  %46 = tail call i32 (ptr, ...) @printf(ptr noundef nonnull dereferenceable(1) @.str.154, ptr noundef %4)
  br label %47

47:                                               ; preds = %45, %_.exit25
  ret i32 0
}